; Function Attrs: mustprogress uwtable
define hidden noundef zeroext i1 @_ZN3smt11farkas_util11is_int_sortEP3app(ptr noundef nonnull readnone align 8 captures(none) dereferenceable(128) %0, ptr noundef readonly captures(none) %1) local_unnamed_addr #3 align 2 {
  %3 = getelementptr inbounds nuw i8, ptr %1, i64 32
  %4 = load ptr, ptr %3, align 8, !tbaa !32
  %5 = tail call noundef ptr @_ZNK4expr8get_sortEv(ptr noundef nonnull align 4 dereferenceable(16) %4)
  %6 = getelementptr inbounds nuw i8, ptr %5, i64 24
  %7 = load ptr, ptr %6, align 8, !tbaa !34
  %8 = icmp eq ptr %7, null
  br i1 %8, label %_ZNK17arith_recognizers6is_intEPK4expr.exit, label %_ZNK4decl13get_family_idEv.exit.thread.i.i.i.i

_ZNK4decl13get_family_idEv.exit.thread.i.i.i.i:   ; preds = %2
  %9 = load i32, ptr %7, align 8, !tbaa !40
  %10 = icmp eq i32 %9, 5
  br i1 %10, label %11, label %_ZNK17arith_recognizers6is_intEPK4expr.exit

11:                                               ; preds = %_ZNK4decl13get_family_idEv.exit.thread.i.i.i.i
  %12 = getelementptr inbounds nuw i8, ptr %7, i64 4
  %13 = load i32, ptr %12, align 4, !tbaa !44
  %14 = icmp eq i32 %13, 1
  br label %_ZNK17arith_recognizers6is_intEPK4expr.exit

_ZNK17arith_recognizers6is_intEPK4expr.exit:      ; preds = %2, %_ZNK4decl13get_family_idEv.exit.thread.i.i.i.i, %11
  %15 = phi i1 [ %14, %11 ], [ false, %_ZNK4decl13get_family_idEv.exit.thread.i.i.i.i ], [ false, %2 ]
  ret i1 %15
}